; Function Attrs: nofree norecurse nosync nounwind memory(read, argmem: readwrite, inaccessiblemem: none) uwtable
define internal fastcc void @ZSTD_deriveSeqStoreChunk(ptr noundef captures(none) initializes((0, 80)) %0, ptr noundef readonly captures(none) %1, i64 noundef %2, i64 noundef range(i64 0, -9223372036854775808) %3) unnamed_addr #21 {
  tail call void @llvm.memcpy.p0.p0.i64(ptr noundef nonnull align 8 dereferenceable(80) %0, ptr noundef nonnull align 8 dereferenceable(80) %1, i64 80, i1 false)
  %.not = icmp eq i64 %2, 0
  br i1 %.not, label %31, label %5

5:                                                ; preds = %4
  %6 = load ptr, ptr %1, align 8
  %7 = getelementptr inbounds %struct.seqDef_s, ptr %6, i64 %2
  %8 = getelementptr inbounds nuw i8, ptr %0, i64 8
  store ptr %7, ptr %8, align 8
  %9 = load ptr, ptr %0, align 8
  %.not.i = icmp eq ptr %7, %9
  br i1 %.not.i, label %ZSTD_countSeqStoreLiteralsBytes.exit, label %.lr.ph.i

.lr.ph.i:                                         ; preds = %5
  %10 = ptrtoint ptr %7 to i64
  %11 = ptrtoint ptr %9 to i64
  %12 = sub i64 %10, %11
  %13 = ashr exact i64 %12, 3
  %14 = getelementptr inbounds nuw i8, ptr %0, i64 76
  %15 = load i32, ptr %14, align 4
  %16 = zext i32 %15 to i64
  %17 = getelementptr inbounds nuw i8, ptr %0, i64 72
  %umax.i = tail call i64 @llvm.umax.i64(i64 %13, i64 1)
  br label %18

18:                                               ; preds = %26, %.lr.ph.i
  %.014.i = phi i64 [ 0, %.lr.ph.i ], [ %.1.i, %26 ]
  %.01213.i = phi i64 [ 0, %.lr.ph.i ], [ %27, %26 ]
  %.sroa.1.0..sroa_idx.i = getelementptr inbounds %struct.seqDef_s, ptr %9, i64 %.01213.i, i32 1
  %.sroa.1.0.copyload.i = load i16, ptr %.sroa.1.0..sroa_idx.i, align 4
  %19 = zext i16 %.sroa.1.0.copyload.i to i64
  %20 = add i64 %.014.i, %19
  %21 = icmp eq i64 %.01213.i, %16
  br i1 %21, label %22, label %26

22:                                               ; preds = %18
  %23 = load i32, ptr %17, align 8
  %24 = icmp eq i32 %23, 1
  %25 = add i64 %20, 65536
  %spec.select.i = select i1 %24, i64 %25, i64 %20
  br label %26

26:                                               ; preds = %22, %18
  %.1.i = phi i64 [ %20, %18 ], [ %spec.select.i, %22 ]
  %27 = add nuw i64 %.01213.i, 1
  %exitcond.not.i = icmp eq i64 %27, %umax.i
  br i1 %exitcond.not.i, label %ZSTD_countSeqStoreLiteralsBytes.exit, label %18, !llvm.loop !30

ZSTD_countSeqStoreLiteralsBytes.exit:             ; preds = %26, %5
  %.0.lcssa.i = phi i64 [ 0, %5 ], [ %.1.i, %26 ]
  %28 = getelementptr inbounds nuw i8, ptr %0, i64 16
  %29 = load ptr, ptr %28, align 8
  %30 = getelementptr inbounds i8, ptr %29, i64 %.0.lcssa.i
  store ptr %30, ptr %28, align 8
  br label %31

31:                                               ; preds = %ZSTD_countSeqStoreLiteralsBytes.exit, %4
  %32 = getelementptr inbounds nuw i8, ptr %1, i64 72
  %33 = load i32, ptr %32, align 8
  %.not35 = icmp eq i32 %33, 0
  br i1 %.not35, label %47, label %34

34:                                               ; preds = %31
  %35 = getelementptr inbounds nuw i8, ptr %1, i64 76
  %36 = load i32, ptr %35, align 4
  %37 = zext i32 %36 to i64
  %38 = icmp ugt i64 %2, %37
  %39 = icmp samesign ult i64 %3, %37
  %or.cond = select i1 %38, i1 true, i1 %39
  br i1 %or.cond, label %40, label %42

40:                                               ; preds = %34
  %41 = getelementptr inbounds nuw i8, ptr %0, i64 72
  store i32 0, ptr %41, align 8
  br label %47

42:                                               ; preds = %34
  %43 = trunc nuw i64 %2 to i32
  %44 = getelementptr inbounds nuw i8, ptr %0, i64 76
  %45 = load i32, ptr %44, align 4
  %46 = sub i32 %45, %43
  store i32 %46, ptr %44, align 4
  br label %47

47:                                               ; preds = %40, %42, %31
  %48 = load ptr, ptr %1, align 8
  %49 = getelementptr inbounds %struct.seqDef_s, ptr %48, i64 %2
  store ptr %49, ptr %0, align 8
  %50 = load ptr, ptr %1, align 8
  %51 = getelementptr inbounds nuw %struct.seqDef_s, ptr %50, i64 %3
  %52 = getelementptr inbounds nuw i8, ptr %0, i64 8
  store ptr %51, ptr %52, align 8
  %53 = getelementptr inbounds nuw i8, ptr %1, i64 8
  %54 = load ptr, ptr %53, align 8
  %55 = load ptr, ptr %1, align 8
  %56 = ptrtoint ptr %54 to i64
  %57 = ptrtoint ptr %55 to i64
  %58 = sub i64 %56, %57
  %59 = ashr exact i64 %58, 3
  %60 = icmp eq i64 %3, %59
  br i1 %60, label %84, label %61

61:                                               ; preds = %47
  %.not.i36 = icmp eq ptr %51, %49
  br i1 %.not.i36, label %ZSTD_countSeqStoreLiteralsBytes.exit47, label %.lr.ph.i37

.lr.ph.i37:                                       ; preds = %61
  %62 = ptrtoint ptr %51 to i64
  %63 = ptrtoint ptr %49 to i64
  %64 = sub i64 %62, %63
  %65 = ashr exact i64 %64, 3
  %66 = getelementptr inbounds nuw i8, ptr %0, i64 76
  %67 = load i32, ptr %66, align 4
  %68 = zext i32 %67 to i64
  %69 = getelementptr inbounds nuw i8, ptr %0, i64 72
  %umax.i38 = tail call i64 @llvm.umax.i64(i64 %65, i64 1)
  br label %70

70:                                               ; preds = %78, %.lr.ph.i37
  %.014.i39 = phi i64 [ 0, %.lr.ph.i37 ], [ %.1.i43, %78 ]
  %.01213.i40 = phi i64 [ 0, %.lr.ph.i37 ], [ %79, %78 ]
  %.sroa.1.0..sroa_idx.i41 = getelementptr inbounds %struct.seqDef_s, ptr %49, i64 %.01213.i40, i32 1
  %.sroa.1.0.copyload.i42 = load i16, ptr %.sroa.1.0..sroa_idx.i41, align 4
  %71 = zext i16 %.sroa.1.0.copyload.i42 to i64
  %72 = add i64 %.014.i39, %71
  %73 = icmp eq i64 %.01213.i40, %68
  br i1 %73, label %74, label %78

74:                                               ; preds = %70
  %75 = load i32, ptr %69, align 8
  %76 = icmp eq i32 %75, 1
  %77 = add i64 %72, 65536
  %spec.select.i46 = select i1 %76, i64 %77, i64 %72
  br label %78

78:                                               ; preds = %74, %70
  %.1.i43 = phi i64 [ %72, %70 ], [ %spec.select.i46, %74 ]
  %79 = add nuw i64 %.01213.i40, 1
  %exitcond.not.i44 = icmp eq i64 %79, %umax.i38
  br i1 %exitcond.not.i44, label %ZSTD_countSeqStoreLiteralsBytes.exit47, label %70, !llvm.loop !30

ZSTD_countSeqStoreLiteralsBytes.exit47:           ; preds = %78, %61
  %.0.lcssa.i45 = phi i64 [ 0, %61 ], [ %.1.i43, %78 ]
  %80 = getelementptr inbounds nuw i8, ptr %0, i64 16
  %81 = load ptr, ptr %80, align 8
  %82 = getelementptr inbounds i8, ptr %81, i64 %.0.lcssa.i45
  %83 = getelementptr inbounds nuw i8, ptr %0, i64 24
  store ptr %82, ptr %83, align 8
  br label %84

84:                                               ; preds = %47, %ZSTD_countSeqStoreLiteralsBytes.exit47
  %85 = getelementptr inbounds nuw i8, ptr %0, i64 32
  %86 = load ptr, ptr %85, align 8
  %87 = getelementptr inbounds i8, ptr %86, i64 %2
  store ptr %87, ptr %85, align 8
  %88 = getelementptr inbounds nuw i8, ptr %0, i64 40
  %89 = load ptr, ptr %88, align 8
  %90 = getelementptr inbounds i8, ptr %89, i64 %2
  store ptr %90, ptr %88, align 8
  %91 = getelementptr inbounds nuw i8, ptr %0, i64 48
  %92 = load ptr, ptr %91, align 8
  %93 = getelementptr inbounds i8, ptr %92, i64 %2
  store ptr %93, ptr %91, align 8
  ret void
}